target datalayout = "e-m:e-p270:32:32-p271:32:32-p272:64:64-i64:64-i128:128-f80:128-n8:16:32:64-S128"
target triple = "x86_64-pc-linux-gnu"

%struct.WaveFile = type { %struct.WaveChunk, %struct.WaveFormat, %struct.WaveFact, i64, ptr, i32, i32, i32 }
%struct.WaveChunk = type { i32, i32, i64, ptr, i64 }
%struct.WaveFormat = type { i16, i16, i16, i32, i32, i16, i16, i16, i16, i32, i32, [16 x i8] }
%struct.WaveFact = type { i32, i32 }
%struct.MS_ADPCM_CoeffData = type { i16, ptr, i16 }

@.str.42 = private unnamed_addr constant [27 x i8] c"Invalid number of channels\00", align 1
@__const.MS_ADPCM_Init.presetcoeffs = private unnamed_addr constant [14 x i16] [i16 256, i16 0, i16 512, i16 -256, i16 0, i16 0, i16 192, i16 64, i16 240, i16 0, i16 460, i16 -208, i16 392, i16 -232], align 16
@.str.57 = private unnamed_addr constant [39 x i8] c"Invalid MS ADPCM bits per sample of %u\00", align 1
@.str.58 = private unnamed_addr constant [42 x i8] c"Invalid MS ADPCM block size (nBlockAlign)\00", align 1
@.str.59 = private unnamed_addr constant [53 x i8] c"MS ADPCM with the extensible header is not supported\00", align 1
@.str.60 = private unnamed_addr constant [38 x i8] c"Could not read MS ADPCM format header\00", align 1
@.str.61 = private unnamed_addr constant [61 x i8] c"Could not read custom coefficients in MS ADPCM format header\00", align 1
@.str.62 = private unnamed_addr constant [43 x i8] c"Invalid MS ADPCM format header (too small)\00", align 1
@.str.63 = private unnamed_addr constant [56 x i8] c"Missing required coefficients in MS ADPCM format header\00", align 1
@.str.64 = private unnamed_addr constant [52 x i8] c"Wrong preset coefficients in MS ADPCM format header\00", align 1
@.str.65 = private unnamed_addr constant [64 x i8] c"Invalid number of samples per MS ADPCM block (wSamplesPerBlock)\00", align 1

; Function Attrs: nounwind uwtable
define internal zeroext i1 @MS_ADPCM_Init(ptr noundef %0, i64 noundef %1) #0 {
  %3 = alloca i1, align 1
  %4 = alloca ptr, align 8
  %5 = alloca i64, align 8
  %6 = alloca ptr, align 8
  %7 = alloca ptr, align 8
  %8 = alloca i64, align 8
  %9 = alloca i64, align 8
  %10 = alloca i64, align 8
  %11 = alloca i64, align 8
  %12 = alloca [14 x i16], align 16
  %13 = alloca i64, align 8
  %14 = alloca i64, align 8
  %15 = alloca ptr, align 8
  %16 = alloca i32, align 4
  %17 = alloca i32, align 4
  store ptr %0, ptr %4, align 8
  store i64 %1, ptr %5, align 8
  call void @llvm.lifetime.start.p0(i64 8, ptr %6) #7
  %18 = load ptr, ptr %4, align 8
  %19 = getelementptr inbounds nuw %struct.WaveFile, ptr %18, i32 0, i32 1
  store ptr %19, ptr %6, align 8
  call void @llvm.lifetime.start.p0(i64 8, ptr %7) #7
  %20 = load ptr, ptr %4, align 8
  %21 = getelementptr inbounds nuw %struct.WaveFile, ptr %20, i32 0, i32 0
  store ptr %21, ptr %7, align 8
  call void @llvm.lifetime.start.p0(i64 8, ptr %8) #7
  %22 = load ptr, ptr %6, align 8
  %23 = getelementptr inbounds nuw %struct.WaveFormat, ptr %22, i32 0, i32 2
  %24 = load i16, ptr %23, align 4
  %25 = zext i16 %24 to i64
  %26 = mul i64 %25, 7
  store i64 %26, ptr %8, align 8
  call void @llvm.lifetime.start.p0(i64 8, ptr %9) #7
  %27 = load ptr, ptr %6, align 8
  %28 = getelementptr inbounds nuw %struct.WaveFormat, ptr %27, i32 0, i32 5
  %29 = load i16, ptr %28, align 4
  %30 = zext i16 %29 to i64
  %31 = load i64, ptr %8, align 8
  %32 = sub i64 %30, %31
  store i64 %32, ptr %9, align 8
  call void @llvm.lifetime.start.p0(i64 8, ptr %10) #7
  %33 = load ptr, ptr %6, align 8
  %34 = getelementptr inbounds nuw %struct.WaveFormat, ptr %33, i32 0, i32 6
  %35 = load i16, ptr %34, align 2
  %36 = zext i16 %35 to i64
  %37 = load ptr, ptr %6, align 8
  %38 = getelementptr inbounds nuw %struct.WaveFormat, ptr %37, i32 0, i32 2
  %39 = load i16, ptr %38, align 4
  %40 = zext i16 %39 to i64
  %41 = mul i64 %36, %40
  store i64 %41, ptr %10, align 8
  call void @llvm.lifetime.start.p0(i64 8, ptr %11) #7
  %42 = load i64, ptr %9, align 8
  %43 = mul i64 %42, 8
  %44 = load i64, ptr %10, align 8
  %45 = udiv i64 %43, %44
  store i64 %45, ptr %11, align 8
  call void @llvm.lifetime.start.p0(i64 28, ptr %12) #7
  call void @llvm.memcpy.p0.p0.i64(ptr align 16 %12, ptr align 16 @__const.MS_ADPCM_Init.presetcoeffs, i64 28, i1 false)
  call void @llvm.lifetime.start.p0(i64 8, ptr %13) #7
  call void @llvm.lifetime.start.p0(i64 8, ptr %14) #7
  call void @llvm.lifetime.start.p0(i64 8, ptr %15) #7
  %46 = load ptr, ptr %6, align 8
  %47 = getelementptr inbounds nuw %struct.WaveFormat, ptr %46, i32 0, i32 2
  %48 = load i16, ptr %47, align 4
  %49 = zext i16 %48 to i32
  %50 = icmp sgt i32 %49, 2
  br i1 %50, label %51, label %53

51:                                               ; preds = %2
  %52 = call zeroext i1 (ptr, ...) @SDL_SetError_REAL(ptr noundef @.str.42)
  store i1 %52, ptr %3, align 1
  store i32 1, ptr %16, align 4
  br label %261

53:                                               ; preds = %2
  %54 = load ptr, ptr %6, align 8
  %55 = getelementptr inbounds nuw %struct.WaveFormat, ptr %54, i32 0, i32 6
  %56 = load i16, ptr %55, align 2
  %57 = zext i16 %56 to i32
  %58 = icmp ne i32 %57, 4
  br i1 %58, label %59, label %65

59:                                               ; preds = %53
  %60 = load ptr, ptr %6, align 8
  %61 = getelementptr inbounds nuw %struct.WaveFormat, ptr %60, i32 0, i32 6
  %62 = load i16, ptr %61, align 2
  %63 = zext i16 %62 to i32
  %64 = call zeroext i1 (ptr, ...) @SDL_SetError_REAL(ptr noundef @.str.57, i32 noundef %63)
  store i1 %64, ptr %3, align 1
  store i32 1, ptr %16, align 4
  br label %261

65:                                               ; preds = %53
  %66 = load ptr, ptr %6, align 8
  %67 = getelementptr inbounds nuw %struct.WaveFormat, ptr %66, i32 0, i32 5
  %68 = load i16, ptr %67, align 4
  %69 = zext i16 %68 to i64
  %70 = load i64, ptr %8, align 8
  %71 = icmp ult i64 %69, %70
  br i1 %71, label %72, label %74

72:                                               ; preds = %65
  %73 = call zeroext i1 (ptr, ...) @SDL_SetError_REAL(ptr noundef @.str.58)
  store i1 %73, ptr %3, align 1
  store i32 1, ptr %16, align 4
  br label %261

74:                                               ; preds = %65
  %75 = load ptr, ptr %6, align 8
  %76 = getelementptr inbounds nuw %struct.WaveFormat, ptr %75, i32 0, i32 0
  %77 = load i16, ptr %76, align 4
  %78 = zext i16 %77 to i32
  %79 = icmp eq i32 %78, 65534
  br i1 %79, label %80, label %82

80:                                               ; preds = %74
  %81 = call zeroext i1 (ptr, ...) @SDL_SetError_REAL(ptr noundef @.str.59)
  store i1 %81, ptr %3, align 1
  store i32 1, ptr %16, align 4
  br label %261

82:                                               ; preds = %74
  %83 = load ptr, ptr %7, align 8
  %84 = getelementptr inbounds nuw %struct.WaveChunk, ptr %83, i32 0, i32 4
  %85 = load i64, ptr %84, align 8
  %86 = icmp ult i64 %85, 22
  br i1 %86, label %87, label %89

87:                                               ; preds = %82
  %88 = call zeroext i1 (ptr, ...) @SDL_SetError_REAL(ptr noundef @.str.60)
  store i1 %88, ptr %3, align 1
  store i32 1, ptr %16, align 4
  br label %261

89:                                               ; preds = %82
  %90 = load ptr, ptr %7, align 8
  %91 = getelementptr inbounds nuw %struct.WaveChunk, ptr %90, i32 0, i32 3
  %92 = load ptr, ptr %91, align 8
  %93 = getelementptr inbounds i8, ptr %92, i64 18
  %94 = load i8, ptr %93, align 1
  %95 = zext i8 %94 to i32
  %96 = load ptr, ptr %7, align 8
  %97 = getelementptr inbounds nuw %struct.WaveChunk, ptr %96, i32 0, i32 3
  %98 = load ptr, ptr %97, align 8
  %99 = getelementptr inbounds i8, ptr %98, i64 19
  %100 = load i8, ptr %99, align 1
  %101 = zext i8 %100 to i16
  %102 = zext i16 %101 to i32
  %103 = shl i32 %102, 8
  %104 = or i32 %95, %103
  %105 = load ptr, ptr %6, align 8
  %106 = getelementptr inbounds nuw %struct.WaveFormat, ptr %105, i32 0, i32 9
  store i32 %104, ptr %106, align 4
  %107 = load ptr, ptr %7, align 8
  %108 = getelementptr inbounds nuw %struct.WaveChunk, ptr %107, i32 0, i32 3
  %109 = load ptr, ptr %108, align 8
  %110 = getelementptr inbounds i8, ptr %109, i64 20
  %111 = load i8, ptr %110, align 1
  %112 = zext i8 %111 to i64
  %113 = load ptr, ptr %7, align 8
  %114 = getelementptr inbounds nuw %struct.WaveChunk, ptr %113, i32 0, i32 3
  %115 = load ptr, ptr %114, align 8
  %116 = getelementptr inbounds i8, ptr %115, i64 21
  %117 = load i8, ptr %116, align 1
  %118 = zext i8 %117 to i64
  %119 = shl i64 %118, 8
  %120 = or i64 %112, %119
  store i64 %120, ptr %14, align 8
  %121 = load i64, ptr %14, align 8
  %122 = icmp ugt i64 %121, 256
  br i1 %122, label %123, label %124

123:                                              ; preds = %89
  store i64 256, ptr %14, align 8
  br label %124

124:                                              ; preds = %123, %89
  %125 = load ptr, ptr %7, align 8
  %126 = getelementptr inbounds nuw %struct.WaveChunk, ptr %125, i32 0, i32 4
  %127 = load i64, ptr %126, align 8
  %128 = load i64, ptr %14, align 8
  %129 = mul i64 %128, 4
  %130 = add i64 22, %129
  %131 = icmp ult i64 %127, %130
  br i1 %131, label %132, label %134

132:                                              ; preds = %124
  %133 = call zeroext i1 (ptr, ...) @SDL_SetError_REAL(ptr noundef @.str.61)
  store i1 %133, ptr %3, align 1
  store i32 1, ptr %16, align 4
  br label %261

134:                                              ; preds = %124
  %135 = load ptr, ptr %6, align 8
  %136 = getelementptr inbounds nuw %struct.WaveFormat, ptr %135, i32 0, i32 7
  %137 = load i16, ptr %136, align 4
  %138 = zext i16 %137 to i64
  %139 = load i64, ptr %14, align 8
  %140 = mul i64 %139, 4
  %141 = add i64 4, %140
  %142 = icmp ult i64 %138, %141
  br i1 %142, label %143, label %145

143:                                              ; preds = %134
  %144 = call zeroext i1 (ptr, ...) @SDL_SetError_REAL(ptr noundef @.str.62)
  store i1 %144, ptr %3, align 1
  store i32 1, ptr %16, align 4
  br label %261

145:                                              ; preds = %134
  %146 = load i64, ptr %14, align 8
  %147 = icmp ult i64 %146, 7
  br i1 %147, label %148, label %150

148:                                              ; preds = %145
  %149 = call zeroext i1 (ptr, ...) @SDL_SetError_REAL(ptr noundef @.str.63)
  store i1 %149, ptr %3, align 1
  store i32 1, ptr %16, align 4
  br label %261

150:                                              ; preds = %145
  br label %151

151:                                              ; preds = %150
  br label %152

152:                                              ; preds = %151
  %153 = load i64, ptr %14, align 8
  %154 = mul i64 %153, 4
  %155 = add i64 24, %154
  %156 = call noalias ptr @SDL_malloc_REAL(i64 noundef %155)
  store ptr %156, ptr %15, align 8
  %157 = load ptr, ptr %15, align 8
  %158 = load ptr, ptr %4, align 8
  %159 = getelementptr inbounds nuw %struct.WaveFile, ptr %158, i32 0, i32 4
  store ptr %157, ptr %159, align 8
  %160 = load ptr, ptr %15, align 8
  %161 = icmp ne ptr %160, null
  br i1 %161, label %163, label %162

162:                                              ; preds = %152
  store i1 false, ptr %3, align 1
  store i32 1, ptr %16, align 4
  br label %261

163:                                              ; preds = %152
  %164 = load ptr, ptr %15, align 8
  %165 = getelementptr inbounds nuw %struct.MS_ADPCM_CoeffData, ptr %164, i32 0, i32 2
  %166 = load ptr, ptr %15, align 8
  %167 = getelementptr inbounds nuw %struct.MS_ADPCM_CoeffData, ptr %166, i32 0, i32 1
  store ptr %165, ptr %167, align 8
  %168 = load i64, ptr %14, align 8
  %169 = trunc i64 %168 to i16
  %170 = load ptr, ptr %15, align 8
  %171 = getelementptr inbounds nuw %struct.MS_ADPCM_CoeffData, ptr %170, i32 0, i32 0
  store i16 %169, ptr %171, align 8
  store i64 0, ptr %13, align 8
  br label %172

172:                                              ; preds = %226, %163
  %173 = load i64, ptr %13, align 8
  %174 = load i64, ptr %14, align 8
  %175 = mul i64 %174, 2
  %176 = icmp ult i64 %173, %175
  br i1 %176, label %177, label %229

177:                                              ; preds = %172
  call void @llvm.lifetime.start.p0(i64 4, ptr %17) #7
  %178 = load ptr, ptr %7, align 8
  %179 = getelementptr inbounds nuw %struct.WaveChunk, ptr %178, i32 0, i32 3
  %180 = load ptr, ptr %179, align 8
  %181 = load i64, ptr %13, align 8
  %182 = mul i64 %181, 2
  %183 = add i64 22, %182
  %184 = getelementptr inbounds nuw i8, ptr %180, i64 %183
  %185 = load i8, ptr %184, align 1
  %186 = zext i8 %185 to i32
  %187 = load ptr, ptr %7, align 8
  %188 = getelementptr inbounds nuw %struct.WaveChunk, ptr %187, i32 0, i32 3
  %189 = load ptr, ptr %188, align 8
  %190 = load i64, ptr %13, align 8
  %191 = mul i64 %190, 2
  %192 = add i64 23, %191
  %193 = getelementptr inbounds nuw i8, ptr %189, i64 %192
  %194 = load i8, ptr %193, align 1
  %195 = zext i8 %194 to i32
  %196 = shl i32 %195, 8
  %197 = or i32 %186, %196
  store i32 %197, ptr %17, align 4
  %198 = load i32, ptr %17, align 4
  %199 = icmp sge i32 %198, 32768
  br i1 %199, label %200, label %203

200:                                              ; preds = %177
  %201 = load i32, ptr %17, align 4
  %202 = sub nsw i32 %201, 65536
  store i32 %202, ptr %17, align 4
  br label %203

203:                                              ; preds = %200, %177
  %204 = load i64, ptr %13, align 8
  %205 = icmp ult i64 %204, 14
  br i1 %205, label %206, label %215

206:                                              ; preds = %203
  %207 = load i32, ptr %17, align 4
  %208 = load i64, ptr %13, align 8
  %209 = getelementptr inbounds nuw [14 x i16], ptr %12, i64 0, i64 %208
  %210 = load i16, ptr %209, align 2
  %211 = sext i16 %210 to i32
  %212 = icmp ne i32 %207, %211
  br i1 %212, label %213, label %215

213:                                              ; preds = %206
  %214 = call zeroext i1 (ptr, ...) @SDL_SetError_REAL(ptr noundef @.str.64)
  store i1 %214, ptr %3, align 1
  store i32 1, ptr %16, align 4
  br label %223

215:                                              ; preds = %206, %203
  %216 = load i32, ptr %17, align 4
  %217 = trunc i32 %216 to i16
  %218 = load ptr, ptr %15, align 8
  %219 = getelementptr inbounds nuw %struct.MS_ADPCM_CoeffData, ptr %218, i32 0, i32 1
  %220 = load ptr, ptr %219, align 8
  %221 = load i64, ptr %13, align 8
  %222 = getelementptr inbounds nuw i16, ptr %220, i64 %221
  store i16 %217, ptr %222, align 2
  store i32 0, ptr %16, align 4
  br label %223

223:                                              ; preds = %215, %213
  call void @llvm.lifetime.end.p0(i64 4, ptr %17) #7
  %224 = load i32, ptr %16, align 4
  switch i32 %224, label %261 [
    i32 0, label %225
  ]

225:                                              ; preds = %223
  br label %226

226:                                              ; preds = %225
  %227 = load i64, ptr %13, align 8
  %228 = add i64 %227, 1
  store i64 %228, ptr %13, align 8
  br label %172, !llvm.loop !12

229:                                              ; preds = %172
  %230 = load ptr, ptr %6, align 8
  %231 = getelementptr inbounds nuw %struct.WaveFormat, ptr %230, i32 0, i32 9
  %232 = load i32, ptr %231, align 4
  %233 = icmp eq i32 %232, 0
  br i1 %233, label %234, label %240

234:                                              ; preds = %229
  %235 = load i64, ptr %11, align 8
  %236 = trunc i64 %235 to i32
  %237 = add i32 %236, 2
  %238 = load ptr, ptr %6, align 8
  %239 = getelementptr inbounds nuw %struct.WaveFormat, ptr %238, i32 0, i32 9
  store i32 %237, ptr %239, align 4
  br label %240

240:                                              ; preds = %234, %229
  %241 = load ptr, ptr %6, align 8
  %242 = getelementptr inbounds nuw %struct.WaveFormat, ptr %241, i32 0, i32 9
  %243 = load i32, ptr %242, align 4
  %244 = icmp eq i32 %243, 1
  br i1 %244, label %253, label %245

245:                                              ; preds = %240
  %246 = load i64, ptr %11, align 8
  %247 = load ptr, ptr %6, align 8
  %248 = getelementptr inbounds nuw %struct.WaveFormat, ptr %247, i32 0, i32 9
  %249 = load i32, ptr %248, align 4
  %250 = sub i32 %249, 2
  %251 = zext i32 %250 to i64
  %252 = icmp ult i64 %246, %251
  br i1 %252, label %253, label %255

253:                                              ; preds = %245, %240
  %254 = call zeroext i1 (ptr, ...) @SDL_SetError_REAL(ptr noundef @.str.65)
  store i1 %254, ptr %3, align 1
  store i32 1, ptr %16, align 4
  br label %261

255:                                              ; preds = %245
  %256 = load ptr, ptr %4, align 8
  %257 = load i64, ptr %5, align 8
  %258 = call zeroext i1 @MS_ADPCM_CalculateSampleFrames(ptr noundef %256, i64 noundef %257)
  br i1 %258, label %260, label %259

259:                                              ; preds = %255
  store i1 false, ptr %3, align 1
  store i32 1, ptr %16, align 4
  br label %261

260:                                              ; preds = %255
  store i1 true, ptr %3, align 1
  store i32 1, ptr %16, align 4
  br label %261

261:                                              ; preds = %260, %259, %253, %223, %162, %148, %143, %132, %87, %80, %72, %59, %51
  call void @llvm.lifetime.end.p0(i64 8, ptr %15) #7
  call void @llvm.lifetime.end.p0(i64 8, ptr %14) #7
  call void @llvm.lifetime.end.p0(i64 8, ptr %13) #7
  call void @llvm.lifetime.end.p0(i64 28, ptr %12) #7
  call void @llvm.lifetime.end.p0(i64 8, ptr %11) #7
  call void @llvm.lifetime.end.p0(i64 8, ptr %10) #7
  call void @llvm.lifetime.end.p0(i64 8, ptr %9) #7
  call void @llvm.lifetime.end.p0(i64 8, ptr %8) #7
  call void @llvm.lifetime.end.p0(i64 8, ptr %7) #7
  call void @llvm.lifetime.end.p0(i64 8, ptr %6) #7
  %262 = load i1, ptr %3, align 1
  ret i1 %262
}