; Function Attrs: nounwind uwtable
define internal fastcc zeroext i1 @MS_ADPCM_Init(ptr noundef nonnull captures(none) %0, i64 noundef range(i64 0, 4294967296) %1) unnamed_addr #0 {
  %3 = getelementptr inbounds nuw i8, ptr %0, i64 32
  %4 = getelementptr inbounds nuw i8, ptr %0, i64 36
  %5 = load i16, ptr %4, align 4
  %6 = zext i16 %5 to i64
  %7 = mul nuw nsw i64 %6, 7
  %8 = getelementptr inbounds nuw i8, ptr %0, i64 48
  %9 = load i16, ptr %8, align 4
  %10 = zext i16 %9 to i64
  %11 = sub nsw i64 %10, %7
  %12 = getelementptr inbounds nuw i8, ptr %0, i64 50
  %13 = load i16, ptr %12, align 2
  %14 = zext i16 %13 to i64
  %15 = mul nuw nsw i64 %14, %6
  %16 = shl nsw i64 %11, 3
  %17 = udiv i64 %16, %15
  %18 = icmp ugt i16 %5, 2
  br i1 %18, label %19, label %21

19:                                               ; preds = %2
  %20 = tail call zeroext i1 (ptr, ...) @SDL_SetError_REAL(ptr noundef nonnull @.str.42) #8
  br label %123

21:                                               ; preds = %2
  %.not = icmp eq i16 %13, 4
  br i1 %.not, label %25, label %22

22:                                               ; preds = %21
  %23 = zext i16 %13 to i32
  %24 = tail call zeroext i1 (ptr, ...) @SDL_SetError_REAL(ptr noundef nonnull @.str.57, i32 noundef %23) #8
  br label %123

25:                                               ; preds = %21
  %26 = icmp samesign ugt i64 %7, %10
  br i1 %26, label %27, label %29

27:                                               ; preds = %25
  %28 = tail call zeroext i1 (ptr, ...) @SDL_SetError_REAL(ptr noundef nonnull @.str.58) #8
  br label %123

29:                                               ; preds = %25
  %30 = load i16, ptr %3, align 4
  %31 = icmp eq i16 %30, -2
  br i1 %31, label %32, label %34

32:                                               ; preds = %29
  %33 = tail call zeroext i1 (ptr, ...) @SDL_SetError_REAL(ptr noundef nonnull @.str.59) #8
  br label %123

34:                                               ; preds = %29
  %35 = getelementptr inbounds nuw i8, ptr %0, i64 24
  %36 = load i64, ptr %35, align 8
  %37 = icmp ult i64 %36, 22
  br i1 %37, label %38, label %40

38:                                               ; preds = %34
  %39 = tail call zeroext i1 (ptr, ...) @SDL_SetError_REAL(ptr noundef nonnull @.str.60) #8
  br label %123

40:                                               ; preds = %34
  %41 = getelementptr inbounds nuw i8, ptr %0, i64 16
  %42 = load ptr, ptr %41, align 8
  %43 = getelementptr inbounds nuw i8, ptr %42, i64 18
  %44 = load i16, ptr %43, align 1
  %45 = zext i16 %44 to i32
  %46 = getelementptr inbounds nuw i8, ptr %0, i64 56
  store i32 %45, ptr %46, align 4
  %47 = getelementptr inbounds nuw i8, ptr %42, i64 20
  %48 = load i8, ptr %47, align 1
  %49 = zext i8 %48 to i64
  %50 = getelementptr inbounds nuw i8, ptr %42, i64 21
  %51 = load i8, ptr %50, align 1
  %52 = zext i8 %51 to i64
  %53 = shl nuw nsw i64 %52, 8
  %54 = or disjoint i64 %53, %49
  %spec.store.select = tail call i64 @llvm.umin.i64(i64 %54, i64 256)
  %55 = shl nuw nsw i64 %spec.store.select, 2
  %56 = add nuw nsw i64 %55, 22
  %57 = icmp ult i64 %36, %56
  br i1 %57, label %58, label %60

58:                                               ; preds = %40
  %59 = tail call zeroext i1 (ptr, ...) @SDL_SetError_REAL(ptr noundef nonnull @.str.61) #8
  br label %123

60:                                               ; preds = %40
  %61 = getelementptr inbounds nuw i8, ptr %0, i64 52
  %62 = load i16, ptr %61, align 4
  %63 = zext i16 %62 to i64
  %64 = add nuw nsw i64 %55, 4
  %65 = icmp samesign ugt i64 %64, %63
  br i1 %65, label %66, label %68

66:                                               ; preds = %60
  %67 = tail call zeroext i1 (ptr, ...) @SDL_SetError_REAL(ptr noundef nonnull @.str.62) #8
  br label %123

68:                                               ; preds = %60
  %69 = icmp samesign ult i64 %54, 7
  br i1 %69, label %70, label %72

70:                                               ; preds = %68
  %71 = tail call zeroext i1 (ptr, ...) @SDL_SetError_REAL(ptr noundef nonnull @.str.63) #8
  br label %123

72:                                               ; preds = %68
  %73 = add nuw nsw i64 %55, 24
  %74 = tail call noalias ptr @SDL_malloc_REAL(i64 noundef %73) #8
  %75 = getelementptr inbounds nuw i8, ptr %0, i64 96
  store ptr %74, ptr %75, align 8
  %.not67 = icmp eq ptr %74, null
  br i1 %.not67, label %123, label %76

76:                                               ; preds = %72
  %77 = getelementptr inbounds nuw i8, ptr %74, i64 16
  %78 = getelementptr inbounds nuw i8, ptr %74, i64 8
  store ptr %77, ptr %78, align 8
  %79 = trunc nuw nsw i64 %spec.store.select to i16
  store i16 %79, ptr %74, align 8
  %80 = shl nuw nsw i64 %spec.store.select, 1
  %umax = tail call i64 @llvm.umax.i64(i64 %80, i64 1)
  br label %81

81:                                               ; preds = %76, %102
  %.06174 = phi i64 [ 0, %76 ], [ %106, %102 ]
  %82 = load ptr, ptr %41, align 8
  %83 = shl nuw nsw i64 %.06174, 1
  %84 = getelementptr inbounds nuw i8, ptr %82, i64 %83
  %85 = getelementptr inbounds nuw i8, ptr %84, i64 22
  %86 = load i8, ptr %85, align 1
  %87 = zext i8 %86 to i32
  %88 = getelementptr inbounds nuw i8, ptr %84, i64 23
  %89 = load i8, ptr %88, align 1
  %90 = zext i8 %89 to i32
  %91 = shl nuw nsw i32 %90, 8
  %92 = or disjoint i32 %91, %87
  %93 = icmp slt i8 %89, 0
  %94 = or disjoint i32 %92, -65536
  %spec.select = select i1 %93, i32 %94, i32 %92
  %95 = icmp samesign ult i64 %.06174, 14
  br i1 %95, label %96, label %102

96:                                               ; preds = %81
  %97 = getelementptr inbounds nuw [14 x i16], ptr @__const.MS_ADPCM_Init.presetcoeffs, i64 0, i64 %.06174
  %98 = load i16, ptr %97, align 2
  %99 = sext i16 %98 to i32
  %.not68 = icmp eq i32 %spec.select, %99
  br i1 %.not68, label %102, label %100

100:                                              ; preds = %96
  %101 = tail call zeroext i1 (ptr, ...) @SDL_SetError_REAL(ptr noundef nonnull @.str.64) #8
  br label %123

102:                                              ; preds = %81, %96
  %103 = trunc nsw i32 %spec.select to i16
  %104 = load ptr, ptr %78, align 8
  %105 = getelementptr inbounds nuw i16, ptr %104, i64 %.06174
  store i16 %103, ptr %105, align 2
  %106 = add nuw nsw i64 %.06174, 1
  %exitcond.not = icmp eq i64 %106, %umax
  br i1 %exitcond.not, label %107, label %81, !llvm.loop !18

107:                                              ; preds = %102
  %108 = load i32, ptr %46, align 4
  %109 = icmp eq i32 %108, 0
  br i1 %109, label %110, label %113

110:                                              ; preds = %107
  %111 = trunc i64 %17 to i32
  %112 = add i32 %111, 2
  store i32 %112, ptr %46, align 4
  br label %113

113:                                              ; preds = %110, %107
  %114 = phi i32 [ %112, %110 ], [ %108, %107 ]
  %115 = icmp eq i32 %114, 1
  %116 = add i32 %114, -2
  %117 = zext i32 %116 to i64
  %118 = icmp ult i64 %17, %117
  %or.cond = select i1 %115, i1 true, i1 %118
  br i1 %or.cond, label %119, label %121

119:                                              ; preds = %113
  %120 = tail call zeroext i1 (ptr, ...) @SDL_SetError_REAL(ptr noundef nonnull @.str.65) #8
  br label %123

121:                                              ; preds = %113
  %122 = tail call fastcc zeroext i1 @MS_ADPCM_CalculateSampleFrames(ptr noundef %0, i64 noundef %1)
  br label %123

123:                                              ; preds = %100, %121, %72, %119, %70, %66, %58, %38, %32, %27, %22, %19
  %.060 = phi i1 [ %20, %19 ], [ %24, %22 ], [ %28, %27 ], [ %33, %32 ], [ %39, %38 ], [ %59, %58 ], [ %67, %66 ], [ %71, %70 ], [ %101, %100 ], [ %120, %119 ], [ false, %72 ], [ %122, %121 ]
  ret i1 %.060
}